target datalayout = "e-m:e-p270:32:32-p271:32:32-p272:64:64-i64:64-i128:128-f80:128-n8:16:32:64-S128"
target triple = "x86_64-pc-linux-gnu"

%class.InlineTableSizes = type { i32, i32, i32, i32, i32, i32, i32, i32, i32, i32, i32 }

; Function Attrs: mustprogress nounwind uwtable
define linkonce_odr hidden noundef i32 @_Z10align_downIiiTnNSt9enable_ifIXcvbsr3std11is_integralIT_EE5valueEiE4typeELi0EES1_S1_T0_(i32 noundef %0, i32 noundef %1) #1 comdat {
  %3 = alloca i32, align 4
  %4 = alloca i32, align 4
  %5 = alloca i32, align 4
  store i32 %0, ptr %3, align 4
  store i32 %1, ptr %4, align 4
  %6 = load i32, ptr %3, align 4
  %7 = load i32, ptr %4, align 4
  %8 = call noundef i32 @_ZL14alignment_maskIiTnNSt9enable_ifIXcvbsr3std11is_integralIT_EE5valueEiE4typeELi0EES1_S1_(i32 noundef %7)
  %9 = xor i32 %8, -1
  %10 = and i32 %6, %9
  store i32 %10, ptr %5, align 4
  %11 = load i32, ptr %5, align 4
  ret i32 %11
}

; Function Attrs: mustprogress nounwind uwtable
define linkonce_odr hidden noundef i32 @_Z12checked_castIiiET_T0_(i32 noundef %0) #1 comdat {
  %2 = alloca i32, align 4
  %3 = alloca i32, align 4
  store i32 %0, ptr %2, align 4
  %4 = load i32, ptr %2, align 4
  store i32 %4, ptr %3, align 4
  %5 = load i32, ptr %3, align 4
  ret i32 %5
}

; Function Attrs: mustprogress nounwind uwtable
define internal noundef i32 @_ZL14alignment_maskIiTnNSt9enable_ifIXcvbsr3std11is_integralIT_EE5valueEiE4typeELi0EES1_S1_(i32 noundef %0) #1 {
  %2 = alloca i32, align 4
  store i32 %0, ptr %2, align 4
  %3 = load i32, ptr %2, align 4
  %4 = sub nsw i32 %3, 1
  ret i32 %4
}

; Function Attrs: mustprogress nounwind uwtable
define linkonce_odr hidden noundef i32 @_Z19align_metadata_sizeIiET_S0_(i32 noundef %0) #1 comdat {
  %2 = alloca i32, align 4
  store i32 %0, ptr %2, align 4
  %3 = load i32, ptr %2, align 4
  %4 = call noundef i32 @_Z8align_upIiiTnNSt9enable_ifIXcvbsr3std11is_integralIT_EE5valueEiE4typeELi0EES1_S1_T0_(i32 noundef %3, i32 noundef 1)
  ret i32 %4
}

; Function Attrs: mustprogress nounwind uwtable
define linkonce_odr hidden noundef i32 @_ZN11ConstMethod11header_sizeEv() #1 comdat align 2 {
  %1 = call noundef i32 @_Z8align_upIiiTnNSt9enable_ifIXcvbsr3std11is_integralIT_EE5valueEiE4typeELi0EES1_S1_T0_(i32 noundef 56, i32 noundef 8)
  %2 = sdiv i32 %1, 8
  ret i32 %2
}

; Function Attrs: mustprogress nounwind uwtable
define linkonce_odr hidden noundef i32 @_ZNK16InlineTableSizes26default_annotations_lengthEv(ptr noundef nonnull align 4 dereferenceable(44) %0) #1 comdat align 2 {
  %2 = alloca ptr, align 8
  store ptr %0, ptr %2, align 8
  %3 = load ptr, ptr %2, align 8
  %4 = getelementptr inbounds %class.InlineTableSizes, ptr %3, i32 0, i32 9
  %5 = load i32, ptr %4, align 4
  ret i32 %5
}

; Function Attrs: mustprogress nounwind uwtable
define linkonce_odr hidden noundef i32 @_ZNK16InlineTableSizes23type_annotations_lengthEv(ptr noundef nonnull align 4 dereferenceable(44) %0) #1 comdat align 2 {
  %2 = alloca ptr, align 8
  store ptr %0, ptr %2, align 8
  %3 = load ptr, ptr %2, align 8
  %4 = getelementptr inbounds %class.InlineTableSizes, ptr %3, i32 0, i32 8
  %5 = load i32, ptr %4, align 4
  ret i32 %5
}

; Function Attrs: mustprogress nounwind uwtable
define linkonce_odr hidden noundef i32 @_ZNK16InlineTableSizes28parameter_annotations_lengthEv(ptr noundef nonnull align 4 dereferenceable(44) %0) #1 comdat align 2 {
  %2 = alloca ptr, align 8
  store ptr %0, ptr %2, align 8
  %3 = load ptr, ptr %2, align 8
  %4 = getelementptr inbounds %class.InlineTableSizes, ptr %3, i32 0, i32 7
  %5 = load i32, ptr %4, align 4
  ret i32 %5
}

; Function Attrs: mustprogress nounwind uwtable
define linkonce_odr hidden noundef i32 @_ZNK16InlineTableSizes25method_annotations_lengthEv(ptr noundef nonnull align 4 dereferenceable(44) %0) #1 comdat align 2 {
  %2 = alloca ptr, align 8
  store ptr %0, ptr %2, align 8
  %3 = load ptr, ptr %2, align 8
  %4 = getelementptr inbounds %class.InlineTableSizes, ptr %3, i32 0, i32 6
  %5 = load i32, ptr %4, align 4
  ret i32 %5
}

; Function Attrs: mustprogress nounwind uwtable
define linkonce_odr hidden noundef i32 @_Z8align_upIiiTnNSt9enable_ifIXcvbsr3std11is_integralIT_EE5valueEiE4typeELi0EES1_S1_T0_(i32 noundef %0, i32 noundef %1) #1 comdat {
  %3 = alloca i32, align 4
  %4 = alloca i32, align 4
  %5 = alloca i32, align 4
  store i32 %0, ptr %3, align 4
  store i32 %1, ptr %4, align 4
  %6 = load i32, ptr %3, align 4
  %7 = load i32, ptr %4, align 4
  %8 = call noundef i32 @_ZL14alignment_maskIiTnNSt9enable_ifIXcvbsr3std11is_integralIT_EE5valueEiE4typeELi0EES1_S1_(i32 noundef %7)
  %9 = add nsw i32 %6, %8
  %10 = call noundef i32 @_Z12checked_castIiiET_T0_(i32 noundef %9)
  store i32 %10, ptr %5, align 4
  %11 = load i32, ptr %5, align 4
  %12 = load i32, ptr %4, align 4
  %13 = call noundef i32 @_Z10align_downIiiTnNSt9enable_ifIXcvbsr3std11is_integralIT_EE5valueEiE4typeELi0EES1_S1_T0_(i32 noundef %11, i32 noundef %12)
  ret i32 %13
}

; Function Attrs: mustprogress nounwind uwtable
define linkonce_odr hidden noundef i32 @_ZNK16InlineTableSizes24method_parameters_lengthEv(ptr noundef nonnull align 4 dereferenceable(44) %0) #1 comdat align 2 {
  %2 = alloca ptr, align 8
  store ptr %0, ptr %2, align 8
  %3 = load ptr, ptr %2, align 8
  %4 = getelementptr inbounds %class.InlineTableSizes, ptr %3, i32 0, i32 4
  %5 = load i32, ptr %4, align 4
  ret i32 %5
}

; Function Attrs: mustprogress nounwind uwtable
define linkonce_odr hidden noundef i32 @_ZNK16InlineTableSizes23generic_signature_indexEv(ptr noundef nonnull align 4 dereferenceable(44) %0) #1 comdat align 2 {
  %2 = alloca ptr, align 8
  store ptr %0, ptr %2, align 8
  %3 = load ptr, ptr %2, align 8
  %4 = getelementptr inbounds %class.InlineTableSizes, ptr %3, i32 0, i32 5
  %5 = load i32, ptr %4, align 4
  ret i32 %5
}

; Function Attrs: mustprogress nounwind uwtable
define linkonce_odr hidden noundef i32 @_ZNK16InlineTableSizes22exception_table_lengthEv(ptr noundef nonnull align 4 dereferenceable(44) %0) #1 comdat align 2 {
  %2 = alloca ptr, align 8
  store ptr %0, ptr %2, align 8
  %3 = load ptr, ptr %2, align 8
  %4 = getelementptr inbounds %class.InlineTableSizes, ptr %3, i32 0, i32 2
  %5 = load i32, ptr %4, align 4
  ret i32 %5
}

; Function Attrs: mustprogress nounwind uwtable
define linkonce_odr hidden noundef i32 @_ZNK16InlineTableSizes26localvariable_table_lengthEv(ptr noundef nonnull align 4 dereferenceable(44) %0) #1 comdat align 2 {
  %2 = alloca ptr, align 8
  store ptr %0, ptr %2, align 8
  %3 = load ptr, ptr %2, align 8
  %4 = getelementptr inbounds %class.InlineTableSizes, ptr %3, i32 0, i32 0
  %5 = load i32, ptr %4, align 4
  ret i32 %5
}

; Function Attrs: mustprogress nounwind uwtable
define linkonce_odr hidden noundef i32 @_ZNK16InlineTableSizes25checked_exceptions_lengthEv(ptr noundef nonnull align 4 dereferenceable(44) %0) #1 comdat align 2 {
  %2 = alloca ptr, align 8
  store ptr %0, ptr %2, align 8
  %3 = load ptr, ptr %2, align 8
  %4 = getelementptr inbounds %class.InlineTableSizes, ptr %3, i32 0, i32 3
  %5 = load i32, ptr %4, align 4
  ret i32 %5
}

; Function Attrs: mustprogress nounwind uwtable
define linkonce_odr hidden noundef i32 @_ZNK16InlineTableSizes26compressed_linenumber_sizeEv(ptr noundef nonnull align 4 dereferenceable(44) %0) #1 comdat align 2 {
  %2 = alloca ptr, align 8
  store ptr %0, ptr %2, align 8
  %3 = load ptr, ptr %2, align 8
  %4 = getelementptr inbounds %class.InlineTableSizes, ptr %3, i32 0, i32 1
  %5 = load i32, ptr %4, align 4
  ret i32 %5
}

; Function Attrs: mustprogress nounwind uwtable
define hidden noundef i32 @_ZN11ConstMethod4sizeEiP16InlineTableSizes(i32 noundef %0, ptr noundef %1) #1 align 2 {
  %3 = alloca i32, align 4
  %4 = alloca ptr, align 8
  %5 = alloca i32, align 4
  %6 = alloca i32, align 4
  store i32 %0, ptr %3, align 4
  store ptr %1, ptr %4, align 8
  %7 = load i32, ptr %3, align 4
  store i32 %7, ptr %5, align 4
  %8 = load ptr, ptr %4, align 8
  %9 = call noundef i32 @_ZNK16InlineTableSizes26compressed_linenumber_sizeEv(ptr noundef nonnull align 4 dereferenceable(44) %8)
  %10 = icmp sgt i32 %9, 0
  br i1 %10, label %11, label %16

11:                                               ; preds = %2
  %12 = load ptr, ptr %4, align 8
  %13 = call noundef i32 @_ZNK16InlineTableSizes26compressed_linenumber_sizeEv(ptr noundef nonnull align 4 dereferenceable(44) %12)
  %14 = load i32, ptr %5, align 4
  %15 = add nsw i32 %14, %13
  store i32 %15, ptr %5, align 4
  br label %16

16:                                               ; preds = %11, %2
  %17 = load ptr, ptr %4, align 8
  %18 = call noundef i32 @_ZNK16InlineTableSizes25checked_exceptions_lengthEv(ptr noundef nonnull align 4 dereferenceable(44) %17)
  %19 = icmp sgt i32 %18, 0
  br i1 %19, label %20, label %30

20:                                               ; preds = %16
  %21 = load i32, ptr %5, align 4
  %22 = sext i32 %21 to i64
  %23 = add i64 %22, 2
  %24 = trunc i64 %23 to i32
  store i32 %24, ptr %5, align 4
  %25 = load ptr, ptr %4, align 8
  %26 = call noundef i32 @_ZNK16InlineTableSizes25checked_exceptions_lengthEv(ptr noundef nonnull align 4 dereferenceable(44) %25)
  %27 = mul nsw i32 %26, 2
  %28 = load i32, ptr %5, align 4
  %29 = add nsw i32 %28, %27
  store i32 %29, ptr %5, align 4
  br label %30

30:                                               ; preds = %20, %16
  %31 = load ptr, ptr %4, align 8
  %32 = call noundef i32 @_ZNK16InlineTableSizes26localvariable_table_lengthEv(ptr noundef nonnull align 4 dereferenceable(44) %31)
  %33 = icmp sgt i32 %32, 0
  br i1 %33, label %34, label %44

34:                                               ; preds = %30
  %35 = load i32, ptr %5, align 4
  %36 = sext i32 %35 to i64
  %37 = add i64 %36, 2
  %38 = trunc i64 %37 to i32
  store i32 %38, ptr %5, align 4
  %39 = load ptr, ptr %4, align 8
  %40 = call noundef i32 @_ZNK16InlineTableSizes26localvariable_table_lengthEv(ptr noundef nonnull align 4 dereferenceable(44) %39)
  %41 = mul nsw i32 %40, 12
  %42 = load i32, ptr %5, align 4
  %43 = add nsw i32 %42, %41
  store i32 %43, ptr %5, align 4
  br label %44

44:                                               ; preds = %34, %30
  %45 = load ptr, ptr %4, align 8
  %46 = call noundef i32 @_ZNK16InlineTableSizes22exception_table_lengthEv(ptr noundef nonnull align 4 dereferenceable(44) %45)
  %47 = icmp sgt i32 %46, 0
  br i1 %47, label %48, label %58

48:                                               ; preds = %44
  %49 = load i32, ptr %5, align 4
  %50 = sext i32 %49 to i64
  %51 = add i64 %50, 2
  %52 = trunc i64 %51 to i32
  store i32 %52, ptr %5, align 4
  %53 = load ptr, ptr %4, align 8
  %54 = call noundef i32 @_ZNK16InlineTableSizes22exception_table_lengthEv(ptr noundef nonnull align 4 dereferenceable(44) %53)
  %55 = mul nsw i32 %54, 8
  %56 = load i32, ptr %5, align 4
  %57 = add nsw i32 %56, %55
  store i32 %57, ptr %5, align 4
  br label %58

58:                                               ; preds = %48, %44
  %59 = load ptr, ptr %4, align 8
  %60 = call noundef i32 @_ZNK16InlineTableSizes23generic_signature_indexEv(ptr noundef nonnull align 4 dereferenceable(44) %59)
  %61 = icmp ne i32 %60, 0
  br i1 %61, label %62, label %67

62:                                               ; preds = %58
  %63 = load i32, ptr %5, align 4
  %64 = sext i32 %63 to i64
  %65 = add i64 %64, 2
  %66 = trunc i64 %65 to i32
  store i32 %66, ptr %5, align 4
  br label %67

67:                                               ; preds = %62, %58
  %68 = load ptr, ptr %4, align 8
  %69 = call noundef i32 @_ZNK16InlineTableSizes24method_parameters_lengthEv(ptr noundef nonnull align 4 dereferenceable(44) %68)
  %70 = icmp sge i32 %69, 0
  br i1 %70, label %71, label %81

71:                                               ; preds = %67
  %72 = load i32, ptr %5, align 4
  %73 = sext i32 %72 to i64
  %74 = add i64 %73, 2
  %75 = trunc i64 %74 to i32
  store i32 %75, ptr %5, align 4
  %76 = load ptr, ptr %4, align 8
  %77 = call noundef i32 @_ZNK16InlineTableSizes24method_parameters_lengthEv(ptr noundef nonnull align 4 dereferenceable(44) %76)
  %78 = mul nsw i32 %77, 4
  %79 = load i32, ptr %5, align 4
  %80 = add nsw i32 %79, %78
  store i32 %80, ptr %5, align 4
  br label %81

81:                                               ; preds = %71, %67
  %82 = load i32, ptr %5, align 4
  %83 = call noundef i32 @_Z8align_upIiiTnNSt9enable_ifIXcvbsr3std11is_integralIT_EE5valueEiE4typeELi0EES1_S1_T0_(i32 noundef %82, i32 noundef 8)
  store i32 %83, ptr %5, align 4
  %84 = load ptr, ptr %4, align 8
  %85 = call noundef i32 @_ZNK16InlineTableSizes25method_annotations_lengthEv(ptr noundef nonnull align 4 dereferenceable(44) %84)
  %86 = icmp sgt i32 %85, 0
  br i1 %86, label %87, label %90

87:                                               ; preds = %81
  %88 = load i32, ptr %5, align 4
  %89 = add nsw i32 %88, 8
  store i32 %89, ptr %5, align 4
  br label %90

90:                                               ; preds = %87, %81
  %91 = load ptr, ptr %4, align 8
  %92 = call noundef i32 @_ZNK16InlineTableSizes28parameter_annotations_lengthEv(ptr noundef nonnull align 4 dereferenceable(44) %91)
  %93 = icmp sgt i32 %92, 0
  br i1 %93, label %94, label %97

94:                                               ; preds = %90
  %95 = load i32, ptr %5, align 4
  %96 = add nsw i32 %95, 8
  store i32 %96, ptr %5, align 4
  br label %97

97:                                               ; preds = %94, %90
  %98 = load ptr, ptr %4, align 8
  %99 = call noundef i32 @_ZNK16InlineTableSizes23type_annotations_lengthEv(ptr noundef nonnull align 4 dereferenceable(44) %98)
  %100 = icmp sgt i32 %99, 0
  br i1 %100, label %101, label %104

101:                                              ; preds = %97
  %102 = load i32, ptr %5, align 4
  %103 = add nsw i32 %102, 8
  store i32 %103, ptr %5, align 4
  br label %104

104:                                              ; preds = %101, %97
  %105 = load ptr, ptr %4, align 8
  %106 = call noundef i32 @_ZNK16InlineTableSizes26default_annotations_lengthEv(ptr noundef nonnull align 4 dereferenceable(44) %105)
  %107 = icmp sgt i32 %106, 0
  br i1 %107, label %108, label %111

108:                                              ; preds = %104
  %109 = load i32, ptr %5, align 4
  %110 = add nsw i32 %109, 8
  store i32 %110, ptr %5, align 4
  br label %111

111:                                              ; preds = %108, %104
  %112 = load i32, ptr %5, align 4
  %113 = call noundef i32 @_Z8align_upIiiTnNSt9enable_ifIXcvbsr3std11is_integralIT_EE5valueEiE4typeELi0EES1_S1_T0_(i32 noundef %112, i32 noundef 8)
  %114 = sdiv i32 %113, 8
  store i32 %114, ptr %6, align 4
  %115 = call noundef i32 @_ZN11ConstMethod11header_sizeEv()
  %116 = load i32, ptr %6, align 4
  %117 = add nsw i32 %115, %116
  %118 = call noundef i32 @_Z19align_metadata_sizeIiET_S0_(i32 noundef %117)
  ret i32 %118
}