; Function Attrs: mustprogress nofree norecurse nosync nounwind willreturn memory(argmem: read) uwtable
define hidden noundef i32 @_ZN11ConstMethod4sizeEiP16InlineTableSizes(i32 noundef %0, ptr nocapture noundef readonly %1) local_unnamed_addr #1 align 2 {
  %3 = getelementptr inbounds i8, ptr %1, i64 4
  %4 = load i32, ptr %3, align 4
  %5 = tail call i32 @llvm.smax.i32(i32 %4, i32 0)
  %spec.select33 = add nsw i32 %5, %0
  %6 = getelementptr inbounds i8, ptr %1, i64 12
  %7 = load i32, ptr %6, align 4
  %8 = icmp sgt i32 %7, 0
  %9 = add i32 %spec.select33, 2
  %10 = shl nuw nsw i32 %7, 1
  %11 = add nsw i32 %9, %10
  %.1 = select i1 %8, i32 %11, i32 %spec.select33
  %12 = load i32, ptr %1, align 4
  %13 = icmp sgt i32 %12, 0
  %14 = mul nsw i32 %12, 12
  %15 = or disjoint i32 %14, 2
  %16 = select i1 %13, i32 %15, i32 0
  %.2 = add i32 %.1, %16
  %17 = getelementptr inbounds i8, ptr %1, i64 8
  %18 = load i32, ptr %17, align 4
  %19 = icmp sgt i32 %18, 0
  %20 = shl nsw i32 %18, 3
  %21 = or disjoint i32 %20, 2
  %22 = select i1 %19, i32 %21, i32 0
  %.3 = add i32 %.2, %22
  %23 = getelementptr inbounds i8, ptr %1, i64 20
  %24 = load i32, ptr %23, align 4
  %.not = icmp eq i32 %24, 0
  %25 = add i32 %.3, 2
  %spec.select = select i1 %.not, i32 %.3, i32 %25
  %26 = getelementptr inbounds i8, ptr %1, i64 16
  %27 = load i32, ptr %26, align 4
  %28 = shl nsw i32 %27, 2
  %29 = or disjoint i32 %28, 2
  %30 = icmp slt i32 %27, 0
  %31 = select i1 %30, i32 0, i32 %29
  %.5 = add i32 %spec.select, %31
  %32 = add i32 %.5, 7
  %33 = and i32 %32, -8
  %34 = getelementptr inbounds i8, ptr %1, i64 24
  %35 = add nsw i32 %33, 8
  %36 = load <4 x i32>, ptr %34, align 4
  %37 = icmp sgt <4 x i32> %36, zeroinitializer
  %38 = extractelement <4 x i1> %37, i64 0
  %spec.select32 = select i1 %38, i32 %35, i32 %33
  %39 = add nsw i32 %spec.select32, 8
  %40 = extractelement <4 x i1> %37, i64 1
  %.7 = select i1 %40, i32 %39, i32 %spec.select32
  %41 = add nsw i32 %.7, 8
  %42 = extractelement <4 x i1> %37, i64 2
  %.8 = select i1 %42, i32 %41, i32 %.7
  %43 = add nsw i32 %.8, 8
  %44 = extractelement <4 x i1> %37, i64 3
  %.9 = select i1 %44, i32 %43, i32 %.8
  %45 = add i32 %.9, 7
  %46 = ashr i32 %45, 3
  %47 = add nsw i32 %46, 7
  ret i32 %47
}